Certificate:
    Data:
        Version: 1 (0x0)
        Serial Number: 1048596 (0x100014)
    Signature Algorithm: md5WithRSAEncryption
        Issuer: C=DE, ST=Hessen, L=Giessen, O=DZL, OU=DZL Testeinheit, CN=Obermacker/emailAddress=obermacker@arbeit.de
        Validity
            Not Before: Sep 28 10:43:28 2016 GMT
            Not After : Sep 28 10:43:28 2017 GMT
        Subject: C=sfdasdasdaf, ST=sfdasfda, O=sdsd, OU=sfda, CN=asdf asdf
        Subject Public Key Info:
            Public Key Algorithm: rsaEncryption
                Public-Key: (2048 bit)
                Modulus:
                    00:86:0f:cf:07:83:f6:35:30:6f:75:27:b4:91:49:
                    bb:1a:c1:2a:0d:de:53:f4:67:16:6e:99:e6:da:44:
                    67:81:d9:d7:69:7f:d5:ad:ab:b9:6f:7b:ab:68:d8:
                    e8:e6:2a:d2:6a:83:51:9d:ec:17:42:68:e6:d9:20:
                    cd:f8:5a:7e:5e:c1:00:39:5f:d0:1c:aa:3a:91:5b:
                    4c:68:19:35:de:c1:06:f3:96:27:c2:44:cb:bb:de:
                    9d:ce:90:41:eb:1a:68:3c:9c:1c:13:d3:08:67:86:
                    be:49:a5:70:3c:e9:5b:a9:03:60:59:22:49:40:db:
                    8d:29:7d:1a:54:85:05:82:2b:44:de:ff:e2:50:77:
                    03:d4:85:b6:cb:c4:e1:1a:f1:5c:e7:e4:32:51:31:
                    0c:e3:9d:e0:b0:97:95:1a:66:54:85:80:94:a2:cf:
                    f6:28:a4:0a:44:f5:ff:ed:20:f2:3e:4c:b2:45:db:
                    b7:3b:4d:53:e0:24:b1:5e:6d:d7:50:eb:79:0e:44:
                    94:cd:a8:d6:eb:07:f9:4e:cc:02:cb:8c:be:d5:dd:
                    15:58:6e:5d:e6:b5:bc:2b:09:f7:4f:16:33:29:31:
                    af:5a:c9:ea:7b:b7:48:ad:a9:96:d8:cb:d3:98:af:
                    48:8a:c8:f4:da:2c:da:26:17:d1:b6:6c:40:fd:e2:
                    d5:27
                Exponent: 65537 (0x10001)
    Signature Algorithm: md5WithRSAEncryption
         5b:1f:9e:fa:e6:61:46:24:df:49:dd:4a:cd:38:74:ab:8e:85:
         4a:13:75:c2:e5:06:b0:53:80:c0:de:f6:23:1e:1b:42:cb:29:
         7e:83:3e:0e:71:96:9a:61:7a:89:c3:14:f9:ee:52:0d:ae:cd:
         08:54:29:4e:fe:df:8f:43:4e:2a:08:0a:d3:70:b4:33:a3:5f:
         8e:b0:44:b5:f0:64:2a:fa:fd:bc:59:e5:bd:55:d7:b9:65:05:
         9d:d6:35:dc:6b:e9:ff:be:9e:33:f7:99:b0:75:e5:84:8d:cc:
         3c:53:6d:79:45:db:b6:44:33:df:37:41:5e:f2:8d:87:52:12:
         a3:47:63:bb:fb:1e:54:bb:12:5a:6a:8a:6a:9a:0d:04:e6:a2:
         20:3e:f0:2c:44:70:7a:50:47:d4:fa:f7:99:5b:6b:a7:a5:7d:
         d5:57:81:8a:03:46:32:da:3a:51:b3:bf:37:56:5b:00:ba:1e:
         98:7f:2b:73:68:40:da:12:77:a4:21:02:35:4e:20:db:0e:86:
         43:79:3a:b6:46:63:ef:42:45:2a:41:c2:c2:d1:51:1e:f6:34:
         b2:af:f7:44:94:61:c9:bc:7f:22:19:03:b3:d0:64:dc:b3:7b:
         a1:91:8e:2b:d0:7a:19:26:c8:7d:6d:6d:b7:48:f9:37:c1:8c:
         9d:65:e4:b6
-----BEGIN CERTIFICATE-----
MIIDZDCCAkwCAxAAFDANBgkqhkiG9w0BAQQFADCBkjELMAkGA1UEBhMCREUxDzAN
BgNVBAgMBkhlc3NlbjEQMA4GA1UEBwwHR2llc3NlbjEMMAoGA1UECgwDRFpMMRgw
FgYDVQQLDA9EWkwgVGVzdGVpbmhlaXQxEzARBgNVBAMMCk9iZXJtYWNrZXIxIzAh
BgkqhkiG9w0BCQEWFG9iZXJtYWNrZXJAYXJiZWl0LmRlMB4XDTE2MDkyODEwNDMy
OFoXDTE3MDkyODEwNDMyOFowWzEUMBIGA1UEBhMLc2ZkYXNkYXNkYWYxETAPBgNV
BAgMCHNmZGFzZmRhMQ0wCwYDVQQKDARzZHNkMQ0wCwYDVQQLDARzZmRhMRIwEAYD
VQQDDAlhc2RmIGFzZGYwggEiMA0GCSqGSIb3DQEBAQUAA4IBDwAwggEKAoIBAQCG
D88Hg/Y1MG91J7SRSbsawSoN3lP0ZxZumebaRGeB2ddpf9Wtq7lve6to2OjmKtJq
g1Gd7BdCaObZIM34Wn5ewQA5X9AcqjqRW0xoGTXewQbzlifCRMu73p3OkEHrGmg8
nBwT0whnhr5JpXA86VupA2BZIklA240pfRpUhQWCK0Te/+JQdwPUhbbLxOEa8Vzn
5DJRMQzjneCwl5UaZlSFgJSiz/YopApE9f/tIPI+TLJF27c7TVPgJLFebddQ63kO
RJTNqNbrB/lOzALLjL7V3RVYbl3mtbwrCfdPFjMpMa9ayep7t0itqZbYy9OYr0iK
yPTaLNomF9G2bED94tUnAgMBAAEwDQYJKoZIhvcNAQEEBQADggEBAFsfnvrmYUYk
30ndSs04dKuOhUoTdcLlBrBTgMDe9iMeG0LLKX6DPg5xlppheonDFPnuUg2uzQhU
KU7+349DTioICtNwtDOjX46wRLXwZCr6/bxZ5b1V17llBZ3WNdxr6f++njP3mbB1
5YSNzDxTbXlF27ZEM983QV7yjYdSEqNHY7v7HlS7ElpqimqaDQTmoiA+8CxEcHpQ
R9T695lba6elfdVXgYoDRjLaOlGzvzdWWwC6Hph/K3NoQNoSd6QhAjVOINsOhkN5
OrZGY+9CRSpBwsLRUR72NLKv90SUYcm8fyIZA7PQZNyze6GRjivQehkmyH1tbbdI
+TfBjJ1l5LY=
-----END CERTIFICATE-----
